; Function Attrs: null_pointer_is_valid sspstrong uwtable
define hidden void @quic_proto_tree_add_version(ptr noundef %0, ptr noundef %1, i32 noundef %2, i32 noundef %3) local_unnamed_addr #0 {
  %5 = alloca i32, align 4
  call void @llvm.lifetime.start.p0(i64 4, ptr nonnull %5) #18
  %6 = call ptr @proto_tree_add_item_ret_uint(ptr noundef %1, i32 noundef %2, ptr noundef %0, i32 noundef %3, i32 noundef 4, i32 noundef 0, ptr noundef nonnull %5)
  %7 = load i32, ptr %5, align 4
  %8 = and i32 %7, 252645135
  %9 = icmp eq i32 %8, 168430090
  br i1 %9, label %10, label %11

10:                                               ; preds = %4
  call void (ptr, ptr, ...) @proto_item_append_text(ptr noundef %6, ptr noundef nonnull @.str.55)
  br label %11

11:                                               ; preds = %10, %4
  call void @llvm.lifetime.end.p0(i64 4, ptr nonnull %5) #18
  ret void
}